target datalayout = "e-m:e-p270:32:32-p271:32:32-p272:64:64-i64:64-i128:128-f80:128-n8:16:32:64-S128"
target triple = "x86_64-pc-linux-gnu"

@.str.2 = private unnamed_addr constant [13 x i8] c"BACnet MS/TP\00", align 1
@subdissector_table = internal global ptr null, align 8
@proto_register_mstp.ett = internal global [2 x ptr] [ptr @ett_bacnet_mstp, ptr @ett_bacnet_mstp_checksum], align 16
@.str.38 = private unnamed_addr constant [5 x i8] c"mstp\00", align 1
@proto_mstp = internal global i32 0, align 4
@mstp_handle = internal global ptr null, align 8
@.str.39 = private unnamed_addr constant [23 x i8] c"mstp.vendor_frame_type\00", align 1
@.str.40 = private unnamed_addr constant [32 x i8] c"MSTP Vendor specific Frametypes\00", align 1
@.str.41 = private unnamed_addr constant [8 x i8] c"AT_MSTP\00", align 1
@.str.42 = private unnamed_addr constant [21 x i8] c"BACnet MS/TP Address\00", align 1
@mstp_address_type = internal global i32 -1, align 4

; Function Attrs: null_pointer_is_valid sspstrong uwtable
define hidden void @proto_register_mstp() #0 {
  %1 = alloca ptr, align 8
  call void @llvm.lifetime.start.p0(i64 8, ptr %1) #6
  %2 = call i32 @proto_register_protocol(ptr noundef @.str.2, ptr noundef @.str.2, ptr noundef @.str.38)
  store i32 %2, ptr @proto_mstp, align 4
  %3 = load i32, ptr @proto_mstp, align 4
  call void @proto_register_field_array(i32 noundef %3, ptr noundef @proto_register_mstp.hf, i32 noundef 10)
  call void @proto_register_subtree_array(ptr noundef @proto_register_mstp.ett, i32 noundef 2)
  %4 = load i32, ptr @proto_mstp, align 4
  %5 = call ptr @expert_register_protocol(i32 noundef %4)
  store ptr %5, ptr %1, align 8
  %6 = load ptr, ptr %1, align 8
  call void @expert_register_field_array(ptr noundef %6, ptr noundef @proto_register_mstp.ei, i32 noundef 2)
  %7 = load i32, ptr @proto_mstp, align 4
  %8 = call ptr @register_dissector(ptr noundef @.str.38, ptr noundef @dissect_mstp_wtap, i32 noundef %7)
  store ptr %8, ptr @mstp_handle, align 8
  %9 = load i32, ptr @proto_mstp, align 4
  %10 = call ptr @register_dissector_table(ptr noundef @.str.39, ptr noundef @.str.40, i32 noundef %9, i32 noundef 6, i32 noundef 1)
  store ptr %10, ptr @subdissector_table, align 8
  %11 = call i32 @address_type_dissector_register(ptr noundef @.str.41, ptr noundef @.str.42, ptr noundef @mstp_to_str, ptr noundef @mstp_str_len, ptr noundef null, ptr noundef @mstp_col_filter_str, ptr noundef @mstp_len, ptr noundef null, ptr noundef null)
  store i32 %11, ptr @mstp_address_type, align 4
  call void @llvm.lifetime.end.p0(i64 8, ptr %1) #6
  ret void
}