; Function Attrs: null_pointer_is_valid sspstrong uwtable
define hidden void @proto_register_mstp() local_unnamed_addr #0 {
  %1 = tail call i32 @proto_register_protocol(ptr noundef nonnull @.str.2, ptr noundef nonnull @.str.2, ptr noundef nonnull @.str.38)
  store i32 %1, ptr @proto_mstp, align 4
  tail call void @proto_register_field_array(i32 noundef %1, ptr noundef nonnull @proto_register_mstp.hf, i32 noundef 10)
  tail call void @proto_register_subtree_array(ptr noundef nonnull @proto_register_mstp.ett, i32 noundef 2)
  %2 = load i32, ptr @proto_mstp, align 4
  %3 = tail call ptr @expert_register_protocol(i32 noundef %2)
  tail call void @expert_register_field_array(ptr noundef %3, ptr noundef nonnull @proto_register_mstp.ei, i32 noundef 2)
  %4 = load i32, ptr @proto_mstp, align 4
  %5 = tail call ptr @register_dissector(ptr noundef nonnull @.str.38, ptr noundef nonnull @dissect_mstp_wtap, i32 noundef %4)
  store ptr %5, ptr @mstp_handle, align 8
  %6 = load i32, ptr @proto_mstp, align 4
  %7 = tail call ptr @register_dissector_table(ptr noundef nonnull @.str.39, ptr noundef nonnull @.str.40, i32 noundef %6, i32 noundef 6, i32 noundef 1)
  store ptr %7, ptr @subdissector_table, align 8
  %8 = tail call i32 @address_type_dissector_register(ptr noundef nonnull @.str.41, ptr noundef nonnull @.str.42, ptr noundef nonnull @mstp_to_str, ptr noundef nonnull @mstp_str_len, ptr noundef null, ptr noundef nonnull @mstp_col_filter_str, ptr noundef nonnull @mstp_len, ptr noundef null, ptr noundef null)
  store i32 %8, ptr @mstp_address_type, align 4
  ret void
}